; Function Attrs: nounwind uwtable
define dso_local noalias noundef ptr @power_method(ptr noundef %0, i32 noundef %1, i32 noundef %2) local_unnamed_addr #0 {
  %4 = alloca ptr, align 8
  call void @llvm.lifetime.start.p0(i64 8, ptr nonnull %4) #12
  %5 = sext i32 %1 to i64
  %mul.ov.i = icmp slt i32 %1, 0
  br i1 %mul.ov.i, label %6, label %9

6:                                                ; preds = %3
  %7 = load ptr, ptr @stderr, align 8, !tbaa !4
  %8 = tail call i32 (ptr, ptr, ...) @fprintf(ptr noundef %7, ptr noundef nonnull @.str, i64 noundef range(i64 -2147483648, 2147483648) %5, i64 noundef 8) #13
  tail call fastcc void @graphviz_exit() #14
  unreachable

9:                                                ; preds = %3
  %10 = icmp ne i32 %1, 0
  %11 = tail call noalias ptr @calloc(i64 noundef range(i64 -2147483648, 2147483648) %5, i64 noundef 8) #15
  %12 = icmp eq ptr %11, null
  %or.cond3.i = and i1 %10, %12
  br i1 %or.cond3.i, label %13, label %gv_calloc.exit

13:                                               ; preds = %9
  %14 = load ptr, ptr @stderr, align 8, !tbaa !4
  %15 = shl nuw nsw i64 %5, 3
  %16 = tail call i32 (ptr, ptr, ...) @fprintf(ptr noundef %14, ptr noundef nonnull @.str.1, i64 noundef %15) #13
  tail call fastcc void @graphviz_exit() #14
  unreachable

gv_calloc.exit:                                   ; preds = %9
  %17 = tail call noalias ptr @calloc(i64 noundef range(i64 -2147483648, 2147483648) %5, i64 noundef 8) #15
  %18 = icmp eq ptr %17, null
  %or.cond3.i73 = and i1 %10, %18
  br i1 %or.cond3.i73, label %19, label %23

19:                                               ; preds = %gv_calloc.exit
  %20 = load ptr, ptr @stderr, align 8, !tbaa !4
  %21 = shl nuw nsw i64 %5, 3
  %22 = tail call i32 (ptr, ptr, ...) @fprintf(ptr noundef %20, ptr noundef nonnull @.str.1, i64 noundef %21) #13
  tail call fastcc void @graphviz_exit() #14
  unreachable

23:                                               ; preds = %gv_calloc.exit
  store ptr %17, ptr %4, align 8, !tbaa !9
  %24 = tail call noalias ptr @calloc(i64 noundef range(i64 -2147483648, 2147483648) %5, i64 noundef 8) #15
  %25 = icmp eq ptr %24, null
  %or.cond3.i76 = and i1 %10, %25
  br i1 %or.cond3.i76, label %26, label %gv_calloc.exit77

26:                                               ; preds = %23
  %27 = load ptr, ptr @stderr, align 8, !tbaa !4
  %28 = shl nuw nsw i64 %5, 3
  %29 = tail call i32 (ptr, ptr, ...) @fprintf(ptr noundef %27, ptr noundef nonnull @.str.1, i64 noundef %28) #13
  tail call fastcc void @graphviz_exit() #14
  unreachable

gv_calloc.exit77:                                 ; preds = %23
  tail call void @srand(i32 noundef %2) #12
  %.not = icmp eq i32 %1, 0
  br i1 %.not, label %._crit_edge, label %.lr.ph.preheader

.lr.ph.preheader:                                 ; preds = %gv_calloc.exit77
  %wide.trip.count = zext nneg i32 %1 to i64
  br label %.lr.ph

.lr.ph:                                           ; preds = %.lr.ph.preheader, %.lr.ph
  %indvars.iv = phi i64 [ 0, %.lr.ph.preheader ], [ %indvars.iv.next, %.lr.ph ]
  %30 = tail call double @drand() #12
  %31 = getelementptr inbounds nuw double, ptr %24, i64 %indvars.iv
  store double %30, ptr %31, align 8, !tbaa !11
  %indvars.iv.next = add nuw nsw i64 %indvars.iv, 1
  %exitcond.not = icmp eq i64 %indvars.iv.next, %wide.trip.count
  br i1 %exitcond.not, label %._crit_edge, label %.lr.ph, !llvm.loop !13

._crit_edge:                                      ; preds = %.lr.ph, %gv_calloc.exit77
  %32 = tail call double @vector_product(i32 noundef %1, ptr noundef %24, ptr noundef %24) #12
  %33 = tail call double @sqrt(double noundef %32) #12, !tbaa !15
  %34 = fcmp ogt double %33, 0.000000e+00
  %35 = fdiv double 1.000000e+00, %33
  %.063 = select i1 %34, double %35, double %33
  br i1 %.not, label %.preheader78.split, label %.lr.ph82.preheader

.lr.ph82.preheader:                               ; preds = %._crit_edge
  %smax = tail call i32 @llvm.smax.i32(i32 %1, i32 1)
  %wide.trip.count99 = zext nneg i32 %smax to i64
  br label %.lr.ph82

.preheader78.split.us.preheader:                  ; preds = %.lr.ph82
  %smax104 = tail call i32 @llvm.smax.i32(i32 %1, i32 1)
  %wide.trip.count105 = zext nneg i32 %smax104 to i64
  %wide.trip.count111 = zext nneg i32 %smax104 to i64
  br label %.preheader78.split.us

.preheader78.split.us:                            ; preds = %.preheader78.split.us.preheader, %._crit_edge90.us
  %.0.us = phi i32 [ %62, %._crit_edge90.us ], [ 0, %.preheader78.split.us.preheader ]
  call void @SparseMatrix_multiply_vector(ptr noundef %0, ptr noundef nonnull %24, ptr noundef nonnull %4) #12
  %36 = load ptr, ptr %4, align 8, !tbaa !9
  %37 = call double @vector_product(i32 noundef %1, ptr noundef %36, ptr noundef %36) #12
  %38 = call double @sqrt(double noundef %37) #12, !tbaa !15
  %39 = fcmp ogt double %38, 0.000000e+00
  br i1 %39, label %49, label %.lr.ph84.us

._crit_edge85.us:                                 ; preds = %45
  %40 = call double @vector_product(i32 noundef %1, ptr noundef nonnull %60, ptr noundef nonnull %60) #12
  %41 = call double @sqrt(double noundef %40) #12, !tbaa !15
  %42 = fcmp ogt double %41, 0.000000e+00
  br i1 %42, label %43, label %.lr.ph89.us

43:                                               ; preds = %._crit_edge85.us
  %44 = fdiv double 1.000000e+00, %41
  br label %.lr.ph89.us

45:                                               ; preds = %.lr.ph84.us, %45
  %indvars.iv101 = phi i64 [ 0, %.lr.ph84.us ], [ %indvars.iv.next102, %45 ]
  %46 = getelementptr inbounds nuw double, ptr %24, i64 %indvars.iv101
  %47 = load double, ptr %46, align 8, !tbaa !11
  %48 = getelementptr inbounds nuw double, ptr %60, i64 %indvars.iv101
  store double %47, ptr %48, align 8, !tbaa !11
  %indvars.iv.next102 = add nuw nsw i64 %indvars.iv101, 1
  %exitcond106.not = icmp eq i64 %indvars.iv.next102, %wide.trip.count105
  br i1 %exitcond106.not, label %._crit_edge85.us, label %45, !llvm.loop !17

49:                                               ; preds = %.preheader78.split.us
  %50 = fdiv double 1.000000e+00, %38
  br label %.lr.ph89.us

.lr.ph89.us:                                      ; preds = %49, %43, %._crit_edge85.us
  %.062.us = phi double [ %50, %49 ], [ %44, %43 ], [ %41, %._crit_edge85.us ]
  %51 = load ptr, ptr %4, align 8, !tbaa !9
  br label %52

52:                                               ; preds = %.lr.ph89.us, %52
  %indvars.iv107 = phi i64 [ 0, %.lr.ph89.us ], [ %indvars.iv.next108, %52 ]
  %.16486.us = phi double [ 0.000000e+00, %.lr.ph89.us ], [ %59, %52 ]
  %53 = getelementptr inbounds nuw double, ptr %51, i64 %indvars.iv107
  %54 = load double, ptr %53, align 8, !tbaa !11
  %55 = fmul double %.062.us, %54
  %56 = getelementptr inbounds nuw double, ptr %24, i64 %indvars.iv107
  store double %55, ptr %56, align 8, !tbaa !11
  %57 = getelementptr inbounds nuw double, ptr %11, i64 %indvars.iv107
  %58 = load double, ptr %57, align 8, !tbaa !11
  %59 = call double @llvm.fmuladd.f64(double %55, double %58, double %.16486.us)
  store double %55, ptr %57, align 8, !tbaa !11
  %indvars.iv.next108 = add nuw nsw i64 %indvars.iv107, 1
  %exitcond112.not = icmp eq i64 %indvars.iv.next108, %wide.trip.count111
  br i1 %exitcond112.not, label %._crit_edge90.us, label %52, !llvm.loop !18

.lr.ph84.us:                                      ; preds = %.preheader78.split.us
  %60 = load ptr, ptr %4, align 8, !tbaa !9
  br label %45

._crit_edge90.us:                                 ; preds = %52
  %61 = fcmp olt double %59, 9.999900e-01
  %62 = add nuw nsw i32 %.0.us, 1
  %63 = icmp samesign ult i32 %.0.us, 100
  %or.cond.us = select i1 %61, i1 %63, i1 false
  br i1 %or.cond.us, label %.preheader78.split.us, label %.critedge, !llvm.loop !19

.lr.ph82:                                         ; preds = %.lr.ph82.preheader, %.lr.ph82
  %indvars.iv96 = phi i64 [ 0, %.lr.ph82.preheader ], [ %indvars.iv.next97, %.lr.ph82 ]
  %64 = getelementptr inbounds nuw double, ptr %24, i64 %indvars.iv96
  %65 = load double, ptr %64, align 8, !tbaa !11
  %66 = fmul double %.063, %65
  store double %66, ptr %64, align 8, !tbaa !11
  %67 = getelementptr inbounds nuw double, ptr %11, i64 %indvars.iv96
  store double %66, ptr %67, align 8, !tbaa !11
  %indvars.iv.next97 = add nuw nsw i64 %indvars.iv96, 1
  %exitcond100.not = icmp eq i64 %indvars.iv.next97, %wide.trip.count99
  br i1 %exitcond100.not, label %.preheader78.split.us.preheader, label %.lr.ph82, !llvm.loop !20

.preheader78.split:                               ; preds = %._crit_edge, %74
  %.0 = phi i32 [ %75, %74 ], [ 0, %._crit_edge ]
  call void @SparseMatrix_multiply_vector(ptr noundef %0, ptr noundef %24, ptr noundef nonnull %4) #12
  %68 = load ptr, ptr %4, align 8, !tbaa !9
  %69 = call double @vector_product(i32 noundef 0, ptr noundef %68, ptr noundef %68) #12
  %70 = call double @sqrt(double noundef %69) #12, !tbaa !15
  %71 = fcmp ogt double %70, 0.000000e+00
  br i1 %71, label %74, label %._crit_edge85

._crit_edge85:                                    ; preds = %.preheader78.split
  %.pre117 = load ptr, ptr %4, align 8, !tbaa !9
  %72 = call double @vector_product(i32 noundef 0, ptr noundef %.pre117, ptr noundef %.pre117) #12
  %73 = call double @sqrt(double noundef %72) #12, !tbaa !15
  br label %74

74:                                               ; preds = %._crit_edge85, %.preheader78.split
  %75 = add nuw nsw i32 %.0, 1
  %exitcond116.not = icmp eq i32 %75, 101
  br i1 %exitcond116.not, label %.critedge.loopexit, label %.preheader78.split, !llvm.loop !19

.critedge.loopexit:                               ; preds = %74
  %.pre118 = load ptr, ptr %4, align 8, !tbaa !9
  br label %.critedge

.critedge:                                        ; preds = %._crit_edge90.us, %.critedge.loopexit
  %76 = phi ptr [ %.pre118, %.critedge.loopexit ], [ %51, %._crit_edge90.us ]
  call void @free(ptr noundef %24) #12
  call void @free(ptr noundef %76) #12
  call void @llvm.lifetime.end.p0(i64 8, ptr nonnull %4) #12
  ret ptr %11
}